target datalayout = "e-m:e-p270:32:32-p271:32:32-p272:64:64-i64:64-i128:128-f80:128-n8:16:32:64-S128"
target triple = "x86_64-pc-linux-gnu"

%struct._zval_struct = type { %union._zend_value, %union.anon, %union.anon.2 }
%union._zend_value = type { i64 }
%union.anon = type { i32 }
%union.anon.2 = type { i32 }
%struct._zend_array = type { %struct._zend_refcounted_h, %union.anon.4, i32, %union.anon.6, i32, i32, i32, i32, i64, ptr }
%struct._zend_refcounted_h = type { i32, %union.anon.3 }
%union.anon.3 = type { i32 }
%union.anon.4 = type { i32 }
%union.anon.6 = type { ptr }
%struct._zend_reference = type { %struct._zend_refcounted_h, %struct._zval_struct, %union.zend_property_info_source_list }
%union.zend_property_info_source_list = type { ptr }
%struct.anon.0 = type { i8, i8, %union.anon.1 }
%union.anon.1 = type { i16 }
%struct._zend_refcounted = type { %struct._zend_refcounted_h }

@.str.198 = private unnamed_addr constant [28 x i8] c"cannot be a recursive array\00", align 1

; Function Attrs: alwaysinline nounwind uwtable
define internal i32 @zval_gc_flags(i32 noundef %0) #5 {
  %2 = alloca i32, align 4
  store i32 %0, ptr %2, align 4, !tbaa !4
  %3 = load i32, ptr %2, align 4, !tbaa !4
  %4 = lshr i32 %3, 0
  %5 = and i32 %4, 1008
  ret i32 %5
}

; Function Attrs: alwaysinline nounwind uwtable
define internal zeroext i8 @zval_get_type(ptr noundef %0) #5 {
  %2 = alloca ptr, align 8
  store ptr %0, ptr %2, align 8, !tbaa !67
  %3 = load ptr, ptr %2, align 8, !tbaa !67
  %4 = getelementptr inbounds nuw %struct._zval_struct, ptr %3, i32 0, i32 1
  %5 = getelementptr inbounds nuw %struct.anon.0, ptr %4, i32 0, i32 0
  %6 = load i8, ptr %5, align 8, !tbaa !31
  ret i8 %6
}

; Function Attrs: nounwind uwtable
define internal zeroext i1 @validate_constant_array_argument(ptr noundef %0, i32 noundef %1) #0 {
  %3 = alloca ptr, align 8
  %4 = alloca i32, align 4
  %5 = alloca i8, align 1
  %6 = alloca ptr, align 8
  %7 = alloca ptr, align 8
  %8 = alloca i32, align 4
  %9 = alloca i64, align 8
  %10 = alloca ptr, align 8
  store ptr %0, ptr %3, align 8, !tbaa !83
  store i32 %1, ptr %4, align 4, !tbaa !4
  call void @llvm.lifetime.start.p0(i64 1, ptr %5) #14
  store i8 1, ptr %5, align 1, !tbaa !70
  call void @llvm.lifetime.start.p0(i64 8, ptr %6) #14
  br label %11

11:                                               ; preds = %2
  br label %12

12:                                               ; preds = %11
  %13 = load ptr, ptr %3, align 8, !tbaa !83
  %14 = getelementptr inbounds nuw %struct._zend_array, ptr %13, i32 0, i32 0
  %15 = getelementptr inbounds nuw %struct._zend_refcounted_h, ptr %14, i32 0, i32 1
  %16 = load i32, ptr %15, align 4, !tbaa !31
  %17 = or i32 %16, 32
  store i32 %17, ptr %15, align 4, !tbaa !31
  br label %18

18:                                               ; preds = %12
  br label %19

19:                                               ; preds = %18
  br label %20

20:                                               ; preds = %19
  br label %21

21:                                               ; preds = %20
  br label %22

22:                                               ; preds = %21
  call void @llvm.lifetime.start.p0(i64 8, ptr %7) #14
  %23 = load ptr, ptr %3, align 8, !tbaa !83
  store ptr %23, ptr %7, align 8, !tbaa !83
  call void @llvm.lifetime.start.p0(i64 4, ptr %8) #14
  %24 = load ptr, ptr %7, align 8, !tbaa !83
  %25 = getelementptr inbounds nuw %struct._zend_array, ptr %24, i32 0, i32 4
  %26 = load i32, ptr %25, align 8, !tbaa !103
  store i32 %26, ptr %8, align 4, !tbaa !4
  call void @llvm.lifetime.start.p0(i64 8, ptr %9) #14
  %27 = load ptr, ptr %7, align 8, !tbaa !83
  %28 = getelementptr inbounds nuw %struct._zend_array, ptr %27, i32 0, i32 1
  %29 = load i32, ptr %28, align 8, !tbaa !31
  %30 = xor i32 %29, -1
  %31 = and i32 %30, 4
  %32 = zext i32 %31 to i64
  %33 = mul i64 %32, 4
  %34 = add i64 16, %33
  store i64 %34, ptr %9, align 8, !tbaa !68
  call void @llvm.lifetime.start.p0(i64 8, ptr %10) #14
  %35 = load ptr, ptr %7, align 8, !tbaa !83
  %36 = getelementptr inbounds nuw %struct._zend_array, ptr %35, i32 0, i32 3
  %37 = load ptr, ptr %36, align 8, !tbaa !31
  store ptr %37, ptr %10, align 8, !tbaa !67
  br label %38

38:                                               ; preds = %107, %22
  %39 = load i32, ptr %8, align 4, !tbaa !4
  %40 = icmp ugt i32 %39, 0
  br i1 %40, label %41, label %113

41:                                               ; preds = %38
  %42 = load ptr, ptr %10, align 8, !tbaa !67
  %43 = call zeroext i8 @zval_get_type(ptr noundef %42)
  %44 = zext i8 %43 to i32
  %45 = icmp eq i32 %44, 0
  %46 = xor i1 %45, true
  %47 = xor i1 %46, true
  %48 = zext i1 %47 to i32
  %49 = sext i32 %48 to i64
  %50 = call i64 @llvm.expect.i64(i64 %49, i64 0)
  %51 = icmp ne i64 %50, 0
  br i1 %51, label %52, label %53

52:                                               ; preds = %41
  br label %107

53:                                               ; preds = %41
  %54 = load ptr, ptr %10, align 8, !tbaa !67
  store ptr %54, ptr %6, align 8, !tbaa !67
  br label %55

55:                                               ; preds = %53
  %56 = load ptr, ptr %6, align 8, !tbaa !67
  %57 = call zeroext i8 @zval_get_type(ptr noundef %56)
  %58 = zext i8 %57 to i32
  %59 = icmp eq i32 %58, 10
  %60 = xor i1 %59, true
  %61 = xor i1 %60, true
  %62 = zext i1 %61 to i32
  %63 = sext i32 %62 to i64
  %64 = call i64 @llvm.expect.i64(i64 %63, i64 0)
  %65 = icmp ne i64 %64, 0
  br i1 %65, label %66, label %71

66:                                               ; preds = %55
  %67 = load ptr, ptr %6, align 8, !tbaa !67
  %68 = getelementptr inbounds nuw %struct._zval_struct, ptr %67, i32 0, i32 0
  %69 = load ptr, ptr %68, align 8, !tbaa !31
  %70 = getelementptr inbounds nuw %struct._zend_reference, ptr %69, i32 0, i32 1
  store ptr %70, ptr %6, align 8, !tbaa !67
  br label %71

71:                                               ; preds = %66, %55
  br label %72

72:                                               ; preds = %71
  br label %73

73:                                               ; preds = %72
  %74 = load ptr, ptr %6, align 8, !tbaa !67
  %75 = call zeroext i8 @zval_get_type(ptr noundef %74)
  %76 = zext i8 %75 to i32
  %77 = icmp eq i32 %76, 7
  br i1 %77, label %78, label %106

78:                                               ; preds = %73
  %79 = load ptr, ptr %6, align 8, !tbaa !67
  %80 = getelementptr inbounds nuw %struct._zval_struct, ptr %79, i32 0, i32 1
  %81 = getelementptr inbounds nuw %struct.anon.0, ptr %80, i32 0, i32 1
  %82 = load i8, ptr %81, align 1, !tbaa !31
  %83 = zext i8 %82 to i32
  %84 = icmp ne i32 %83, 0
  br i1 %84, label %85, label %106

85:                                               ; preds = %78
  %86 = load ptr, ptr %6, align 8, !tbaa !67
  %87 = getelementptr inbounds nuw %struct._zval_struct, ptr %86, i32 0, i32 0
  %88 = load ptr, ptr %87, align 8, !tbaa !31
  %89 = getelementptr inbounds nuw %struct._zend_refcounted, ptr %88, i32 0, i32 0
  %90 = getelementptr inbounds nuw %struct._zend_refcounted_h, ptr %89, i32 0, i32 1
  %91 = load i32, ptr %90, align 4, !tbaa !31
  %92 = call i32 @zval_gc_flags(i32 noundef %91)
  %93 = and i32 %92, 32
  %94 = icmp ne i32 %93, 0
  br i1 %94, label %95, label %97

95:                                               ; preds = %85
  %96 = load i32, ptr %4, align 4, !tbaa !4
  call void (i32, ptr, ...) @zend_argument_value_error(i32 noundef %96, ptr noundef @.str.198)
  store i8 0, ptr %5, align 1, !tbaa !70
  br label %113

97:                                               ; preds = %85
  %98 = load ptr, ptr %6, align 8, !tbaa !67
  %99 = getelementptr inbounds nuw %struct._zval_struct, ptr %98, i32 0, i32 0
  %100 = load ptr, ptr %99, align 8, !tbaa !31
  %101 = load i32, ptr %4, align 4, !tbaa !4
  %102 = call zeroext i1 @validate_constant_array_argument(ptr noundef %100, i32 noundef %101)
  br i1 %102, label %104, label %103

103:                                              ; preds = %97
  store i8 0, ptr %5, align 1, !tbaa !70
  br label %113

104:                                              ; preds = %97
  br label %105

105:                                              ; preds = %104
  br label %106

106:                                              ; preds = %105, %78, %73
  br label %107

107:                                              ; preds = %106, %52
  %108 = load ptr, ptr %10, align 8, !tbaa !67
  %109 = load i64, ptr %9, align 8, !tbaa !68
  %110 = getelementptr inbounds nuw i8, ptr %108, i64 %109
  store ptr %110, ptr %10, align 8, !tbaa !67
  %111 = load i32, ptr %8, align 4, !tbaa !4
  %112 = add i32 %111, -1
  store i32 %112, ptr %8, align 4, !tbaa !4
  br label %38

113:                                              ; preds = %103, %95, %38
  call void @llvm.lifetime.end.p0(i64 8, ptr %10) #14
  call void @llvm.lifetime.end.p0(i64 8, ptr %9) #14
  call void @llvm.lifetime.end.p0(i64 4, ptr %8) #14
  call void @llvm.lifetime.end.p0(i64 8, ptr %7) #14
  br label %114

114:                                              ; preds = %113
  br label %115

115:                                              ; preds = %114
  br label %116

116:                                              ; preds = %115
  br label %117

117:                                              ; preds = %116
  %118 = load ptr, ptr %3, align 8, !tbaa !83
  %119 = getelementptr inbounds nuw %struct._zend_array, ptr %118, i32 0, i32 0
  %120 = getelementptr inbounds nuw %struct._zend_refcounted_h, ptr %119, i32 0, i32 1
  %121 = load i32, ptr %120, align 4, !tbaa !31
  %122 = and i32 %121, -33
  store i32 %122, ptr %120, align 4, !tbaa !31
  br label %123

123:                                              ; preds = %117
  br label %124

124:                                              ; preds = %123
  br label %125

125:                                              ; preds = %124
  br label %126

126:                                              ; preds = %125
  %127 = load i8, ptr %5, align 1, !tbaa !70, !range !71, !noundef !72
  %128 = trunc i8 %127 to i1
  call void @llvm.lifetime.end.p0(i64 8, ptr %6) #14
  call void @llvm.lifetime.end.p0(i64 1, ptr %5) #14
  ret i1 %128
}