; Function Attrs: nounwind uwtable
define internal fastcc noundef zeroext i1 @validate_constant_array_argument(ptr noundef captures(none) %0) unnamed_addr #0 {
  %2 = getelementptr inbounds nuw i8, ptr %0, i64 4
  %3 = load i32, ptr %2, align 4, !tbaa !28
  %4 = or i32 %3, 32
  store i32 %4, ptr %2, align 4, !tbaa !28
  %5 = getelementptr inbounds nuw i8, ptr %0, i64 24
  %6 = load i32, ptr %5, align 8, !tbaa !90
  %.not27 = icmp eq i32 %6, 0
  br i1 %.not27, label %.loopexit, label %.lr.ph

.lr.ph:                                           ; preds = %1
  %7 = getelementptr inbounds nuw i8, ptr %0, i64 16
  %8 = load ptr, ptr %7, align 8, !tbaa !28
  %9 = getelementptr inbounds nuw i8, ptr %0, i64 8
  %10 = load i32, ptr %9, align 8, !tbaa !28
  %11 = shl i32 %10, 2
  %12 = and i32 %11, 16
  %13 = xor i32 %12, 16
  %14 = zext nneg i32 %13 to i64
  br label %15

15:                                               ; preds = %.lr.ph, %35
  %.029 = phi ptr [ %8, %.lr.ph ], [ %37, %35 ]
  %.02128 = phi i32 [ %6, %.lr.ph ], [ %38, %35 ]
  %16 = getelementptr inbounds nuw i8, ptr %.029, i64 8
  %17 = load i8, ptr %16, align 8, !tbaa !28
  switch i8 %17, label %21 [
    i8 0, label %35
    i8 10, label %18
  ], !prof !113

18:                                               ; preds = %15
  %19 = load ptr, ptr %.029, align 8, !tbaa !28
  %20 = getelementptr inbounds nuw i8, ptr %19, i64 8
  %.phi.trans.insert = getelementptr inbounds nuw i8, ptr %19, i64 16
  %.pre = load i8, ptr %.phi.trans.insert, align 8, !tbaa !28
  br label %21

21:                                               ; preds = %15, %18
  %22 = phi i8 [ %.pre, %18 ], [ %17, %15 ]
  %.022 = phi ptr [ %20, %18 ], [ %.029, %15 ]
  %23 = icmp eq i8 %22, 7
  br i1 %23, label %24, label %35

24:                                               ; preds = %21
  %25 = getelementptr inbounds nuw i8, ptr %.022, i64 9
  %26 = load i8, ptr %25, align 1, !tbaa !28
  %.not23 = icmp eq i8 %26, 0
  br i1 %.not23, label %35, label %27

27:                                               ; preds = %24
  %28 = load ptr, ptr %.022, align 8, !tbaa !28
  %29 = getelementptr inbounds nuw i8, ptr %28, i64 4
  %30 = load i32, ptr %29, align 4, !tbaa !28
  %31 = and i32 %30, 32
  %.not24 = icmp eq i32 %31, 0
  br i1 %.not24, label %33, label %32

32:                                               ; preds = %27
  tail call void (i32, ptr, ...) @zend_argument_value_error(i32 noundef 2, ptr noundef nonnull @.str.198) #14
  br label %.loopexit

33:                                               ; preds = %27
  %34 = tail call fastcc zeroext i1 @validate_constant_array_argument(ptr noundef nonnull %28)
  br i1 %34, label %35, label %.loopexit

35:                                               ; preds = %15, %21, %24, %33
  %36 = getelementptr inbounds nuw i8, ptr %.029, i64 %14
  %37 = getelementptr inbounds nuw i8, ptr %36, i64 16
  %38 = add i32 %.02128, -1
  %.not = icmp eq i32 %38, 0
  br i1 %.not, label %.loopexit, label %15

.loopexit:                                        ; preds = %35, %33, %1, %32
  %.not26 = phi i1 [ false, %32 ], [ true, %1 ], [ true, %35 ], [ false, %33 ]
  %39 = load i32, ptr %2, align 4, !tbaa !28
  %40 = and i32 %39, -33
  store i32 %40, ptr %2, align 4, !tbaa !28
  ret i1 %.not26
}